; ModuleID = '46/2775.c'
source_filename = "46/2775.c"
target datalayout = "e-m:e-p270:32:32-p271:32:32-p272:64:64-i64:64-f80:128-n8:16:32:64-S128"
target triple = "x86_64-pc-linux-gnu"

@.str = private unnamed_addr constant [5 x i8] c"%d%d\00", align 1
@.str.1 = private unnamed_addr constant [3 x i8] c"%d\00", align 1
@.str.2 = private unnamed_addr constant [4 x i8] c"%d\0A\00", align 1

; Function Attrs: noinline nounwind uwtable
define dso_local i32 @main() #0 {
  %1 = alloca i32, align 4
  %2 = alloca i32, align 4
  %3 = alloca i32, align 4
  %4 = alloca [100 x [100 x i32]], align 16
  %5 = alloca i32, align 4
  %6 = alloca i32, align 4
  %7 = alloca i32, align 4
  %8 = alloca i32, align 4
  %9 = alloca i32, align 4
  %10 = alloca i32, align 4
  %11 = alloca i32, align 4
  %12 = alloca i32, align 4
  %13 = alloca i32, align 4
  %14 = alloca i32, align 4
  store i32 0, i32* %1, align 4
  %15 = call i32 (i8*, ...) @__isoc99_scanf(i8* getelementptr inbounds ([5 x i8], [5 x i8]* @.str, i64 0, i64 0), i32* %2, i32* %3)
  store i32 0, i32* %5, align 4
  br label %16

16:                                               ; preds = %37, %0
  %17 = load i32, i32* %5, align 4
  %18 = load i32, i32* %2, align 4
  %19 = icmp slt i32 %17, %18
  br i1 %19, label %20, label %40

20:                                               ; preds = %16
  store i32 0, i32* %6, align 4
  br label %21

21:                                               ; preds = %33, %20
  %22 = load i32, i32* %6, align 4
  %23 = load i32, i32* %3, align 4
  %24 = icmp slt i32 %22, %23
  br i1 %24, label %25, label %36

25:                                               ; preds = %21
  %26 = load i32, i32* %5, align 4
  %27 = sext i32 %26 to i64
  %28 = getelementptr inbounds [100 x [100 x i32]], [100 x [100 x i32]]* %4, i64 0, i64 %27
  %29 = load i32, i32* %6, align 4
  %30 = sext i32 %29 to i64
  %31 = getelementptr inbounds [100 x i32], [100 x i32]* %28, i64 0, i64 %30
  %32 = call i32 (i8*, ...) @__isoc99_scanf(i8* getelementptr inbounds ([3 x i8], [3 x i8]* @.str.1, i64 0, i64 0), i32* %31)
  br label %33

33:                                               ; preds = %25
  %34 = load i32, i32* %6, align 4
  %35 = add nsw i32 %34, 1
  store i32 %35, i32* %6, align 4
  br label %21

36:                                               ; preds = %21
  br label %37

37:                                               ; preds = %36
  %38 = load i32, i32* %5, align 4
  %39 = add nsw i32 %38, 1
  store i32 %39, i32* %5, align 4
  br label %16

40:                                               ; preds = %16
  store i32 0, i32* %7, align 4
  store i32 0, i32* %8, align 4
  %41 = load i32, i32* %3, align 4
  %42 = sub nsw i32 %41, 1
  store i32 %42, i32* %9, align 4
  %43 = load i32, i32* %2, align 4
  %44 = sub nsw i32 %43, 1
  store i32 %44, i32* %10, align 4
  br label %45

45:                                               ; preds = %141, %40
  %46 = load i32, i32* %8, align 4
  %47 = load i32, i32* %10, align 4
  %48 = icmp sle i32 %46, %47
  br i1 %48, label %49, label %53

49:                                               ; preds = %45
  %50 = load i32, i32* %7, align 4
  %51 = load i32, i32* %9, align 4
  %52 = icmp sle i32 %50, %51
  br label %53

53:                                               ; preds = %49, %45
  %54 = phi i1 [ false, %45 ], [ %52, %49 ]
  br i1 %54, label %55, label %150

55:                                               ; preds = %53
  %56 = load i32, i32* %7, align 4
  store i32 %56, i32* %11, align 4
  br label %57

57:                                               ; preds = %70, %55
  %58 = load i32, i32* %11, align 4
  %59 = load i32, i32* %9, align 4
  %60 = icmp sle i32 %58, %59
  br i1 %60, label %61, label %73

61:                                               ; preds = %57
  %62 = load i32, i32* %8, align 4
  %63 = sext i32 %62 to i64
  %64 = getelementptr inbounds [100 x [100 x i32]], [100 x [100 x i32]]* %4, i64 0, i64 %63
  %65 = load i32, i32* %11, align 4
  %66 = sext i32 %65 to i64
  %67 = getelementptr inbounds [100 x i32], [100 x i32]* %64, i64 0, i64 %66
  %68 = load i32, i32* %67, align 4
  %69 = call i32 (i8*, ...) @printf(i8* getelementptr inbounds ([4 x i8], [4 x i8]* @.str.2, i64 0, i64 0), i32 %68)
  br label %70

70:                                               ; preds = %61
  %71 = load i32, i32* %11, align 4
  %72 = add nsw i32 %71, 1
  store i32 %72, i32* %11, align 4
  br label %57

73:                                               ; preds = %57
  %74 = load i32, i32* %8, align 4
  %75 = add nsw i32 %74, 1
  store i32 %75, i32* %12, align 4
  br label %76

76:                                               ; preds = %90, %73
  %77 = load i32, i32* %12, align 4
  %78 = load i32, i32* %10, align 4
  %79 = sub nsw i32 %78, 1
  %80 = icmp sle i32 %77, %79
  br i1 %80, label %81, label %93

81:                                               ; preds = %76
  %82 = load i32, i32* %12, align 4
  %83 = sext i32 %82 to i64
  %84 = getelementptr inbounds [100 x [100 x i32]], [100 x [100 x i32]]* %4, i64 0, i64 %83
  %85 = load i32, i32* %9, align 4
  %86 = sext i32 %85 to i64
  %87 = getelementptr inbounds [100 x i32], [100 x i32]* %84, i64 0, i64 %86
  %88 = load i32, i32* %87, align 4
  %89 = call i32 (i8*, ...) @printf(i8* getelementptr inbounds ([4 x i8], [4 x i8]* @.str.2, i64 0, i64 0), i32 %88)
  br label %90

90:                                               ; preds = %81
  %91 = load i32, i32* %12, align 4
  %92 = add nsw i32 %91, 1
  store i32 %92, i32* %12, align 4
  br label %76

93:                                               ; preds = %76
  %94 = load i32, i32* %10, align 4
  %95 = load i32, i32* %8, align 4
  %96 = icmp ne i32 %94, %95
  br i1 %96, label %97, label %116

97:                                               ; preds = %93
  %98 = load i32, i32* %9, align 4
  store i32 %98, i32* %13, align 4
  br label %99

99:                                               ; preds = %112, %97
  %100 = load i32, i32* %13, align 4
  %101 = load i32, i32* %7, align 4
  %102 = icmp sge i32 %100, %101
  br i1 %102, label %103, label %115

103:                                              ; preds = %99
  %104 = load i32, i32* %10, align 4
  %105 = sext i32 %104 to i64
  %106 = getelementptr inbounds [100 x [100 x i32]], [100 x [100 x i32]]* %4, i64 0, i64 %105
  %107 = load i32, i32* %13, align 4
  %108 = sext i32 %107 to i64
  %109 = getelementptr inbounds [100 x i32], [100 x i32]* %106, i64 0, i64 %108
  %110 = load i32, i32* %109, align 4
  %111 = call i32 (i8*, ...) @printf(i8* getelementptr inbounds ([4 x i8], [4 x i8]* @.str.2, i64 0, i64 0), i32 %110)
  br label %112

112:                                              ; preds = %103
  %113 = load i32, i32* %13, align 4
  %114 = add nsw i32 %113, -1
  store i32 %114, i32* %13, align 4
  br label %99

115:                                              ; preds = %99
  br label %116

116:                                              ; preds = %115, %93
  %117 = load i32, i32* %9, align 4
  %118 = load i32, i32* %7, align 4
  %119 = icmp ne i32 %117, %118
  br i1 %119, label %120, label %141

120:                                              ; preds = %116
  %121 = load i32, i32* %10, align 4
  %122 = sub nsw i32 %121, 1
  store i32 %122, i32* %14, align 4
  br label %123

123:                                              ; preds = %137, %120
  %124 = load i32, i32* %14, align 4
  %125 = load i32, i32* %8, align 4
  %126 = add nsw i32 %125, 1
  %127 = icmp sge i32 %124, %126
  br i1 %127, label %128, label %140

128:                                              ; preds = %123
  %129 = load i32, i32* %14, align 4
  %130 = sext i32 %129 to i64
  %131 = getelementptr inbounds [100 x [100 x i32]], [100 x [100 x i32]]* %4, i64 0, i64 %130
  %132 = load i32, i32* %7, align 4
  %133 = sext i32 %132 to i64
  %134 = getelementptr inbounds [100 x i32], [100 x i32]* %131, i64 0, i64 %133
  %135 = load i32, i32* %134, align 4
  %136 = call i32 (i8*, ...) @printf(i8* getelementptr inbounds ([4 x i8], [4 x i8]* @.str.2, i64 0, i64 0), i32 %135)
  br label %137

137:                                              ; preds = %128
  %138 = load i32, i32* %14, align 4
  %139 = add nsw i32 %138, -1
  store i32 %139, i32* %14, align 4
  br label %123

140:                                              ; preds = %123
  br label %141

141:                                              ; preds = %140, %116
  %142 = load i32, i32* %7, align 4
  %143 = add nsw i32 %142, 1
  store i32 %143, i32* %7, align 4
  %144 = load i32, i32* %8, align 4
  %145 = add nsw i32 %144, 1
  store i32 %145, i32* %8, align 4
  %146 = load i32, i32* %9, align 4
  %147 = add nsw i32 %146, -1
  store i32 %147, i32* %9, align 4
  %148 = load i32, i32* %10, align 4
  %149 = add nsw i32 %148, -1
  store i32 %149, i32* %10, align 4
  br label %45

150:                                              ; preds = %53
  %151 = load i32, i32* %1, align 4
  ret i32 %151
}

declare dso_local i32 @__isoc99_scanf(i8*, ...) #1

declare dso_local i32 @printf(i8*, ...) #1


!llvm.module.flags = !{!0}
!llvm.ident = !{!1}

!0 = !{i32 1, !"wchar_size", i32 4}
!1 = !{!"clang version 10.0.0-4ubuntu1 "}
